; Function Attrs: mustprogress uwtable
define internal noundef i32 @_ZL35hb_font_get_glyph_v_advance_defaultP9hb_font_tPvjS1_(ptr noundef %0, ptr nocapture readnone %1, i32 noundef %2, ptr nocapture readnone %3) #1 {
  %5 = alloca i32, align 4
  %6 = alloca i32, align 4
  store i32 %2, ptr %5, align 4
  %7 = getelementptr inbounds i8, ptr %0, i64 144
  %8 = load ptr, ptr %7, align 8
  %9 = getelementptr inbounds i8, ptr %8, i64 96
  %10 = load ptr, ptr %9, align 8
  %11 = load ptr, ptr getelementptr inbounds (i8, ptr @_ZL22_hb_font_funcs_default, i64 96), align 8
  %.not = icmp eq ptr %10, %11
  br i1 %.not, label %22, label %12

12:                                               ; preds = %4
  %13 = getelementptr inbounds i8, ptr %0, i64 152
  %14 = load ptr, ptr %13, align 8
  %15 = getelementptr inbounds i8, ptr %8, i64 16
  %16 = load ptr, ptr %15, align 8
  %.not.i = icmp eq ptr %16, null
  br i1 %.not.i, label %_ZN9hb_font_t20get_glyph_v_advancesEjPKjjPij.exit, label %17

17:                                               ; preds = %12
  %18 = getelementptr inbounds i8, ptr %16, i64 64
  %19 = load ptr, ptr %18, align 8
  br label %_ZN9hb_font_t20get_glyph_v_advancesEjPKjjPij.exit

_ZN9hb_font_t20get_glyph_v_advancesEjPKjjPij.exit: ; preds = %12, %17
  %20 = phi ptr [ %19, %17 ], [ null, %12 ]
  call void %10(ptr noundef nonnull %0, ptr noundef %14, i32 noundef 1, ptr noundef nonnull %5, i32 noundef 0, ptr noundef nonnull %6, i32 noundef 0, ptr noundef %20)
  %21 = load i32, ptr %6, align 4
  br label %_ZN9hb_font_t23parent_scale_y_distanceEi.exit

22:                                               ; preds = %4
  %23 = getelementptr inbounds i8, ptr %0, i64 24
  %24 = load ptr, ptr %23, align 8
  %25 = getelementptr inbounds i8, ptr %24, i64 144
  %26 = load ptr, ptr %25, align 8
  %27 = getelementptr inbounds i8, ptr %26, i64 80
  %28 = load ptr, ptr %27, align 8
  %29 = getelementptr inbounds i8, ptr %24, i64 152
  %30 = load ptr, ptr %29, align 8
  %31 = getelementptr inbounds i8, ptr %26, i64 16
  %32 = load ptr, ptr %31, align 8
  %.not.i4 = icmp eq ptr %32, null
  br i1 %.not.i4, label %_ZN9hb_font_t19get_glyph_v_advanceEj.exit, label %33

33:                                               ; preds = %22
  %34 = getelementptr inbounds i8, ptr %32, i64 48
  %35 = load ptr, ptr %34, align 8
  br label %_ZN9hb_font_t19get_glyph_v_advanceEj.exit

_ZN9hb_font_t19get_glyph_v_advanceEj.exit:        ; preds = %22, %33
  %36 = phi ptr [ %35, %33 ], [ null, %22 ]
  %37 = tail call noundef i32 %28(ptr noundef nonnull %24, ptr noundef %30, i32 noundef %2, ptr noundef %36)
  %38 = load ptr, ptr %23, align 8
  %.not.i5 = icmp eq ptr %38, null
  br i1 %.not.i5, label %_ZN9hb_font_t23parent_scale_y_distanceEi.exit, label %39

39:                                               ; preds = %_ZN9hb_font_t19get_glyph_v_advanceEj.exit
  %40 = getelementptr inbounds i8, ptr %38, i64 44
  %41 = load i32, ptr %40, align 4
  %42 = getelementptr inbounds i8, ptr %0, i64 44
  %43 = load i32, ptr %42, align 4
  %.not6.i = icmp eq i32 %41, %43
  br i1 %.not6.i, label %_ZN9hb_font_t23parent_scale_y_distanceEi.exit, label %44

44:                                               ; preds = %39
  %45 = sext i32 %37 to i64
  %46 = sext i32 %43 to i64
  %47 = mul nsw i64 %46, %45
  %48 = sext i32 %41 to i64
  %49 = sdiv i64 %47, %48
  %50 = trunc i64 %49 to i32
  br label %_ZN9hb_font_t23parent_scale_y_distanceEi.exit

_ZN9hb_font_t23parent_scale_y_distanceEi.exit:    ; preds = %44, %39, %_ZN9hb_font_t19get_glyph_v_advanceEj.exit, %_ZN9hb_font_t20get_glyph_v_advancesEjPKjjPij.exit
  %.0 = phi i32 [ %21, %_ZN9hb_font_t20get_glyph_v_advancesEjPKjjPij.exit ], [ %50, %44 ], [ %37, %39 ], [ %37, %_ZN9hb_font_t19get_glyph_v_advanceEj.exit ]
  ret i32 %.0
}